target datalayout = "e-m:e-p270:32:32-p271:32:32-p272:64:64-i64:64-i128:128-f80:128-n8:16:32:64-S128"
target triple = "x86_64-pc-linux-gnu"

; Function Attrs: nounwind uwtable
define internal i32 @_read_float(ptr noundef %0, ptr noundef %1, ptr noundef %2) #0 {
  %4 = alloca i32, align 4
  %5 = alloca ptr, align 8
  %6 = alloca ptr, align 8
  %7 = alloca ptr, align 8
  %8 = alloca ptr, align 8
  %9 = alloca i32, align 4
  store ptr %0, ptr %5, align 8, !tbaa !227
  store ptr %1, ptr %6, align 8, !tbaa !10
  store ptr %2, ptr %7, align 8, !tbaa !208
  call void @llvm.lifetime.start.p0(i64 8, ptr %8) #10
  %10 = load ptr, ptr %5, align 8, !tbaa !227
  %11 = load ptr, ptr %10, align 8, !tbaa !10
  store ptr %11, ptr %8, align 8, !tbaa !10
  br label %12

12:                                               ; preds = %17, %3
  %13 = load ptr, ptr %8, align 8, !tbaa !10
  %14 = load i8, ptr %13, align 1, !tbaa !125
  %15 = sext i8 %14 to i32
  %16 = icmp eq i32 %15, 32
  br i1 %16, label %17, label %20

17:                                               ; preds = %12
  %18 = load ptr, ptr %8, align 8, !tbaa !10
  %19 = getelementptr inbounds nuw i8, ptr %18, i32 1
  store ptr %19, ptr %8, align 8, !tbaa !10
  br label %12

20:                                               ; preds = %12
  %21 = load ptr, ptr %8, align 8, !tbaa !10
  %22 = load ptr, ptr %6, align 8, !tbaa !10
  %23 = call i32 @g_str_has_prefix(ptr noundef %21, ptr noundef %22)
  %24 = icmp ne i32 %23, 0
  br i1 %24, label %26, label %25

25:                                               ; preds = %20
  store i32 0, ptr %4, align 4
  store i32 1, ptr %9, align 4
  br label %66

26:                                               ; preds = %20
  %27 = load ptr, ptr %6, align 8, !tbaa !10
  %28 = call i64 @strlen(ptr noundef %27) #11
  %29 = load ptr, ptr %8, align 8, !tbaa !10
  %30 = getelementptr inbounds nuw i8, ptr %29, i64 %28
  store ptr %30, ptr %8, align 8, !tbaa !10
  br label %31

31:                                               ; preds = %36, %26
  %32 = load ptr, ptr %8, align 8, !tbaa !10
  %33 = load i8, ptr %32, align 1, !tbaa !125
  %34 = sext i8 %33 to i32
  %35 = icmp eq i32 %34, 32
  br i1 %35, label %36, label %39

36:                                               ; preds = %31
  %37 = load ptr, ptr %8, align 8, !tbaa !10
  %38 = getelementptr inbounds nuw i8, ptr %37, i32 1
  store ptr %38, ptr %8, align 8, !tbaa !10
  br label %31

39:                                               ; preds = %31
  %40 = load ptr, ptr %8, align 8, !tbaa !10
  %41 = getelementptr inbounds nuw i8, ptr %40, i32 1
  store ptr %41, ptr %8, align 8, !tbaa !10
  %42 = load i8, ptr %40, align 1, !tbaa !125
  %43 = sext i8 %42 to i32
  %44 = icmp ne i32 %43, 61
  br i1 %44, label %45, label %46

45:                                               ; preds = %39
  store i32 0, ptr %4, align 4
  store i32 1, ptr %9, align 4
  br label %66

46:                                               ; preds = %39
  br label %47

47:                                               ; preds = %52, %46
  %48 = load ptr, ptr %8, align 8, !tbaa !10
  %49 = load i8, ptr %48, align 1, !tbaa !125
  %50 = sext i8 %49 to i32
  %51 = icmp eq i32 %50, 32
  br i1 %51, label %52, label %55

52:                                               ; preds = %47
  %53 = load ptr, ptr %8, align 8, !tbaa !10
  %54 = getelementptr inbounds nuw i8, ptr %53, i32 1
  store ptr %54, ptr %8, align 8, !tbaa !10
  br label %47

55:                                               ; preds = %47
  %56 = load ptr, ptr %8, align 8, !tbaa !10
  %57 = load ptr, ptr %5, align 8, !tbaa !227
  %58 = call reassoc nsz arcp contract afn double @g_ascii_strtod(ptr noundef %56, ptr noundef %57)
  %59 = fptrunc reassoc nsz arcp contract afn double %58 to float
  %60 = load ptr, ptr %7, align 8, !tbaa !208
  store float %59, ptr %60, align 4, !tbaa !102
  %61 = load ptr, ptr %8, align 8, !tbaa !10
  %62 = load ptr, ptr %5, align 8, !tbaa !227
  %63 = load ptr, ptr %62, align 8, !tbaa !10
  %64 = icmp ne ptr %61, %63
  %65 = zext i1 %64 to i32
  store i32 %65, ptr %4, align 4
  store i32 1, ptr %9, align 4
  br label %66

66:                                               ; preds = %55, %45, %25
  call void @llvm.lifetime.end.p0(i64 8, ptr %8) #10
  %67 = load i32, ptr %4, align 4
  ret i32 %67
}