; Function Attrs: nounwind uwtable
define internal fastcc range(i32 0, 2) i32 @_read_float(ptr noundef nonnull %0, ptr noundef %1, ptr noundef nonnull writeonly captures(none) %2) unnamed_addr #0 {
  %4 = load ptr, ptr %0, align 8, !tbaa !55
  br label %5

5:                                                ; preds = %5, %3
  %.0 = phi ptr [ %4, %3 ], [ %8, %5 ]
  %6 = load i8, ptr %.0, align 1, !tbaa !105
  %7 = icmp eq i8 %6, 32
  %8 = getelementptr inbounds nuw i8, ptr %.0, i64 1
  br i1 %7, label %5, label %9

9:                                                ; preds = %5
  %10 = tail call i32 @g_str_has_prefix(ptr noundef nonnull %.0, ptr noundef %1) #11
  %.not = icmp eq i32 %10, 0
  br i1 %.not, label %.loopexit, label %11

11:                                               ; preds = %9
  %12 = tail call i64 @strlen(ptr noundef nonnull dereferenceable(1) %1) #12
  %13 = getelementptr inbounds nuw i8, ptr %.0, i64 %12
  br label %14

14:                                               ; preds = %16, %11
  %.1 = phi ptr [ %13, %11 ], [ %17, %16 ]
  %15 = load i8, ptr %.1, align 1, !tbaa !105
  switch i8 %15, label %.loopexit [
    i8 32, label %16
    i8 61, label %.preheader
  ]

16:                                               ; preds = %14
  %17 = getelementptr inbounds nuw i8, ptr %.1, i64 1
  br label %14

.preheader:                                       ; preds = %14, %.preheader
  %.1.pn = phi ptr [ %.2, %.preheader ], [ %.1, %14 ]
  %.2 = getelementptr inbounds nuw i8, ptr %.1.pn, i64 1
  %18 = load i8, ptr %.2, align 1, !tbaa !105
  %19 = icmp eq i8 %18, 32
  br i1 %19, label %.preheader, label %20

20:                                               ; preds = %.preheader
  %21 = tail call reassoc nsz arcp contract afn double @g_ascii_strtod(ptr noundef nonnull %.2, ptr noundef nonnull %0) #11
  %22 = fptrunc reassoc nsz arcp contract afn double %21 to float
  store float %22, ptr %2, align 4, !tbaa !77
  %23 = load ptr, ptr %0, align 8, !tbaa !55
  %24 = icmp ne ptr %.2, %23
  %25 = zext i1 %24 to i32
  br label %.loopexit

.loopexit:                                        ; preds = %14, %9, %20
  %.017 = phi i32 [ %25, %20 ], [ 0, %9 ], [ 0, %14 ]
  ret i32 %.017
}